target datalayout = "e-m:e-p270:32:32-p271:32:32-p272:64:64-i64:64-i128:128-f80:128-n8:16:32:64-S128"
target triple = "x86_64-pc-linux-gnu"

@.str.58 = private unnamed_addr constant [18 x i8] c"ClamAV %s/%u/%s%c\00", align 1
@.str.59 = private unnamed_addr constant [12 x i8] c"ClamAV %s%c\00", align 1

; Function Attrs: nounwind uwtable
define internal i32 @print_ver(i32 noundef %0, i8 noundef signext %1, ptr noundef %2) #0 {
  %4 = alloca i32, align 4
  %5 = alloca i32, align 4
  %6 = alloca i8, align 1
  %7 = alloca ptr, align 8
  %8 = alloca i32, align 4
  %9 = alloca [32 x i8], align 16
  %10 = alloca ptr, align 8
  %11 = alloca i64, align 8
  %12 = alloca i32, align 4
  store i32 %0, ptr %5, align 4, !tbaa !11
  store i8 %1, ptr %6, align 1, !tbaa !19
  store ptr %2, ptr %7, align 8, !tbaa !36
  call void @llvm.lifetime.start.p0(i64 4, ptr %8) #9
  %13 = load ptr, ptr %7, align 8, !tbaa !36
  %14 = call i64 @cl_engine_get_num(ptr noundef %13, i32 noundef 8, ptr noundef null)
  %15 = trunc i64 %14 to i32
  store i32 %15, ptr %8, align 4, !tbaa !11
  %16 = load i32, ptr %8, align 4, !tbaa !11
  %17 = icmp ne i32 %16, 0
  br i1 %17, label %18, label %34

18:                                               ; preds = %3
  call void @llvm.lifetime.start.p0(i64 32, ptr %9) #9
  call void @llvm.lifetime.start.p0(i64 8, ptr %10) #9
  call void @llvm.lifetime.start.p0(i64 8, ptr %11) #9
  %19 = load ptr, ptr %7, align 8, !tbaa !36
  %20 = call i64 @cl_engine_get_num(ptr noundef %19, i32 noundef 9, ptr noundef null)
  store i64 %20, ptr %11, align 8, !tbaa !13
  %21 = getelementptr inbounds [32 x i8], ptr %9, i64 0, i64 0
  %22 = call ptr @cli_ctime(ptr noundef %11, ptr noundef %21, i64 noundef 32)
  store ptr %22, ptr %10, align 8, !tbaa !4
  %23 = load ptr, ptr %10, align 8, !tbaa !4
  %24 = call i64 @strlen(ptr noundef %23) #10
  %25 = sub i64 %24, 1
  %26 = getelementptr inbounds nuw [32 x i8], ptr %9, i64 0, i64 %25
  store i8 0, ptr %26, align 1, !tbaa !19
  %27 = load i32, ptr %5, align 4, !tbaa !11
  %28 = call ptr @get_version()
  %29 = load i32, ptr %8, align 4, !tbaa !11
  %30 = load ptr, ptr %10, align 8, !tbaa !4
  %31 = load i8, ptr %6, align 1, !tbaa !19
  %32 = sext i8 %31 to i32
  %33 = call i32 (i32, ptr, ...) @mdprintf(i32 noundef %27, ptr noundef @.str.58, ptr noundef %28, i32 noundef %29, ptr noundef %30, i32 noundef %32)
  store i32 %33, ptr %4, align 4
  store i32 1, ptr %12, align 4
  call void @llvm.lifetime.end.p0(i64 8, ptr %11) #9
  call void @llvm.lifetime.end.p0(i64 8, ptr %10) #9
  call void @llvm.lifetime.end.p0(i64 32, ptr %9) #9
  br label %40

34:                                               ; preds = %3
  %35 = load i32, ptr %5, align 4, !tbaa !11
  %36 = call ptr @get_version()
  %37 = load i8, ptr %6, align 1, !tbaa !19
  %38 = sext i8 %37 to i32
  %39 = call i32 (i32, ptr, ...) @mdprintf(i32 noundef %35, ptr noundef @.str.59, ptr noundef %36, i32 noundef %38)
  store i32 %39, ptr %4, align 4
  store i32 1, ptr %12, align 4
  br label %40

40:                                               ; preds = %34, %18
  call void @llvm.lifetime.end.p0(i64 4, ptr %8) #9
  %41 = load i32, ptr %4, align 4
  ret i32 %41
}