; Function Attrs: nounwind uwtable
define internal fastcc void @print_ver(i32 noundef %0, i8 noundef signext %1, ptr noundef %2) unnamed_addr #0 {
  %4 = alloca [32 x i8], align 16
  %5 = alloca i64, align 8
  %6 = tail call i64 @cl_engine_get_num(ptr noundef %2, i32 noundef 8, ptr noundef null) #14
  %7 = trunc i64 %6 to i32
  %.not = icmp eq i32 %7, 0
  br i1 %.not, label %17, label %8

8:                                                ; preds = %3
  call void @llvm.lifetime.start.p0(i64 32, ptr nonnull %4) #14
  call void @llvm.lifetime.start.p0(i64 8, ptr nonnull %5) #14
  %9 = tail call i64 @cl_engine_get_num(ptr noundef %2, i32 noundef 9, ptr noundef null) #14
  store i64 %9, ptr %5, align 8, !tbaa !74
  %10 = call ptr @cli_ctime(ptr noundef nonnull %5, ptr noundef nonnull %4, i64 noundef 32) #14
  %11 = call i64 @strlen(ptr noundef nonnull dereferenceable(1) %10) #13
  %12 = add i64 %11, -1
  %13 = getelementptr inbounds nuw [32 x i8], ptr %4, i64 0, i64 %12
  store i8 0, ptr %13, align 1, !tbaa !15
  %14 = call ptr @get_version() #14
  %15 = sext i8 %1 to i32
  %16 = call i32 (i32, ptr, ...) @mdprintf(i32 noundef %0, ptr noundef nonnull @.str.58, ptr noundef %14, i32 noundef %7, ptr noundef nonnull %10, i32 noundef %15) #14
  call void @llvm.lifetime.end.p0(i64 8, ptr nonnull %5) #14
  call void @llvm.lifetime.end.p0(i64 32, ptr nonnull %4) #14
  br label %21

17:                                               ; preds = %3
  %18 = tail call ptr @get_version() #14
  %19 = sext i8 %1 to i32
  %20 = tail call i32 (i32, ptr, ...) @mdprintf(i32 noundef %0, ptr noundef nonnull @.str.59, ptr noundef %18, i32 noundef %19) #14
  br label %21

21:                                               ; preds = %17, %8
  ret void
}